; Function Attrs: mustprogress uwtable
define noundef range(i32 0, 2) i32 @_ZN12duckdb_miniz30mz_zip_writer_init_from_readerEPNS_14mz_zip_archiveEPKc(ptr noundef captures(address) %0, ptr noundef readnone captures(none) %1) local_unnamed_addr #8 {
  %.not.i = icmp eq ptr %0, null
  br i1 %.not.i, label %_ZN12duckdb_miniz33mz_zip_writer_init_from_reader_v2EPNS_14mz_zip_archiveEPKcj.exit, label %3

3:                                                ; preds = %2
  %4 = getelementptr inbounds nuw i8, ptr %0, i64 104
  %5 = load ptr, ptr %4, align 8, !tbaa !204
  %.not35.i = icmp eq ptr %5, null
  br i1 %.not35.i, label %9, label %6

6:                                                ; preds = %3
  %7 = getelementptr inbounds nuw i8, ptr %0, i64 20
  %8 = load i32, ptr %7, align 4, !tbaa !212
  %.not36.i = icmp eq i32 %8, 1
  br i1 %.not36.i, label %11, label %9

9:                                                ; preds = %6, %3
  %10 = getelementptr inbounds nuw i8, ptr %0, i64 28
  store i32 24, ptr %10, align 4, !tbaa !213
  br label %_ZN12duckdb_miniz33mz_zip_writer_init_from_reader_v2EPNS_14mz_zip_archiveEPKcj.exit

11:                                               ; preds = %6
  %.phi.trans.insert.i = getelementptr inbounds nuw i8, ptr %5, i64 100
  %.pre.i = load i32, ptr %.phi.trans.insert.i, align 4, !tbaa !224
  %12 = icmp eq i32 %.pre.i, 0
  %13 = getelementptr inbounds nuw i8, ptr %0, i64 16
  %14 = load i32, ptr %13, align 8, !tbaa !230
  br i1 %12, label %17, label %.thread.i

.thread.i:                                        ; preds = %11
  %15 = icmp eq i32 %14, -1
  br i1 %15, label %_ZN12duckdb_minizL16mz_zip_set_errorEPNS_14mz_zip_archiveENS_12mz_zip_errorE.exit53.i, label %25

_ZN12duckdb_minizL16mz_zip_set_errorEPNS_14mz_zip_archiveENS_12mz_zip_errorE.exit53.i: ; preds = %.thread.i
  %16 = getelementptr inbounds nuw i8, ptr %0, i64 28
  store i32 2, ptr %16, align 4, !tbaa !213
  br label %_ZN12duckdb_miniz33mz_zip_writer_init_from_reader_v2EPNS_14mz_zip_archiveEPKcj.exit

17:                                               ; preds = %11
  %18 = icmp eq i32 %14, 65535
  br i1 %18, label %_ZN12duckdb_minizL16mz_zip_set_errorEPNS_14mz_zip_archiveENS_12mz_zip_errorE.exit51.i, label %20

_ZN12duckdb_minizL16mz_zip_set_errorEPNS_14mz_zip_archiveENS_12mz_zip_errorE.exit51.i: ; preds = %17
  %19 = getelementptr inbounds nuw i8, ptr %0, i64 28
  store i32 2, ptr %19, align 4, !tbaa !213
  br label %_ZN12duckdb_miniz33mz_zip_writer_init_from_reader_v2EPNS_14mz_zip_archiveEPKcj.exit

20:                                               ; preds = %17
  %21 = load i64, ptr %0, align 8, !tbaa !227
  %22 = add i64 %21, -4294967220
  %23 = icmp ult i64 %22, -4294967296
  br i1 %23, label %_ZN12duckdb_minizL16mz_zip_set_errorEPNS_14mz_zip_archiveENS_12mz_zip_errorE.exit49.i, label %25

_ZN12duckdb_minizL16mz_zip_set_errorEPNS_14mz_zip_archiveENS_12mz_zip_errorE.exit49.i: ; preds = %20
  %24 = getelementptr inbounds nuw i8, ptr %0, i64 28
  store i32 3, ptr %24, align 4, !tbaa !213
  br label %_ZN12duckdb_miniz33mz_zip_writer_init_from_reader_v2EPNS_14mz_zip_archiveEPKcj.exit

25:                                               ; preds = %20, %.thread.i
  %26 = getelementptr inbounds nuw i8, ptr %5, i64 112
  %27 = load ptr, ptr %26, align 8, !tbaa !298
  %.not40.i = icmp eq ptr %27, null
  br i1 %.not40.i, label %29, label %_ZN12duckdb_minizL16mz_zip_set_errorEPNS_14mz_zip_archiveENS_12mz_zip_errorE.exit47.i

_ZN12duckdb_minizL16mz_zip_set_errorEPNS_14mz_zip_archiveENS_12mz_zip_errorE.exit47.i: ; preds = %25
  %28 = getelementptr inbounds nuw i8, ptr %0, i64 28
  store i32 24, ptr %28, align 4, !tbaa !213
  br label %_ZN12duckdb_miniz33mz_zip_writer_init_from_reader_v2EPNS_14mz_zip_archiveEPKcj.exit

29:                                               ; preds = %25
  %30 = getelementptr inbounds nuw i8, ptr %5, i64 128
  %31 = load ptr, ptr %30, align 8, !tbaa !241
  %.not41.i = icmp eq ptr %31, null
  br i1 %.not41.i, label %42, label %32

32:                                               ; preds = %29
  %33 = getelementptr inbounds nuw i8, ptr %0, i64 96
  %34 = load ptr, ptr %33, align 8, !tbaa !228
  %.not43.i = icmp eq ptr %34, %0
  br i1 %.not43.i, label %36, label %_ZN12duckdb_minizL16mz_zip_set_errorEPNS_14mz_zip_archiveENS_12mz_zip_errorE.exit45.i

_ZN12duckdb_minizL16mz_zip_set_errorEPNS_14mz_zip_archiveENS_12mz_zip_errorE.exit45.i: ; preds = %32
  %35 = getelementptr inbounds nuw i8, ptr %0, i64 28
  store i32 24, ptr %35, align 4, !tbaa !213
  br label %_ZN12duckdb_miniz33mz_zip_writer_init_from_reader_v2EPNS_14mz_zip_archiveEPKcj.exit

36:                                               ; preds = %32
  %37 = getelementptr inbounds nuw i8, ptr %5, i64 136
  %38 = load i64, ptr %37, align 8, !tbaa !242
  %39 = getelementptr inbounds nuw i8, ptr %5, i64 144
  store i64 %38, ptr %39, align 8, !tbaa !296
  %40 = getelementptr inbounds nuw i8, ptr %0, i64 80
  store ptr @_ZN12duckdb_minizL22mz_zip_heap_write_funcEPvmPKvm, ptr %40, align 8, !tbaa !294
  %41 = getelementptr inbounds nuw i8, ptr %0, i64 88
  store ptr null, ptr %41, align 8, !tbaa !240
  br label %46

42:                                               ; preds = %29
  %43 = getelementptr inbounds nuw i8, ptr %0, i64 80
  %44 = load ptr, ptr %43, align 8, !tbaa !294
  %.not42.i = icmp eq ptr %44, null
  br i1 %.not42.i, label %_ZN12duckdb_minizL16mz_zip_set_errorEPNS_14mz_zip_archiveENS_12mz_zip_errorE.exit.i, label %46

_ZN12duckdb_minizL16mz_zip_set_errorEPNS_14mz_zip_archiveENS_12mz_zip_errorE.exit.i: ; preds = %42
  %45 = getelementptr inbounds nuw i8, ptr %0, i64 28
  store i32 24, ptr %45, align 4, !tbaa !213
  br label %_ZN12duckdb_miniz33mz_zip_writer_init_from_reader_v2EPNS_14mz_zip_archiveEPKcj.exit

46:                                               ; preds = %42, %36
  %47 = getelementptr inbounds nuw i8, ptr %0, i64 8
  %48 = load i64, ptr %47, align 8, !tbaa !231
  store i64 %48, ptr %0, align 8, !tbaa !227
  store i64 0, ptr %47, align 8, !tbaa !231
  %49 = getelementptr inbounds nuw i8, ptr %5, i64 64
  %50 = getelementptr inbounds nuw i8, ptr %0, i64 48
  %51 = load ptr, ptr %50, align 8, !tbaa !211
  %52 = getelementptr inbounds nuw i8, ptr %0, i64 64
  %53 = load ptr, ptr %52, align 8, !tbaa !214
  %54 = load ptr, ptr %49, align 8, !tbaa !215
  tail call void %51(ptr noundef %53, ptr noundef %54)
  tail call void @llvm.memset.p0.i64(ptr noundef nonnull align 8 dereferenceable(32) %49, i8 0, i64 32, i1 false)
  store i32 2, ptr %7, align 4, !tbaa !212
  br label %_ZN12duckdb_miniz33mz_zip_writer_init_from_reader_v2EPNS_14mz_zip_archiveEPKcj.exit

_ZN12duckdb_miniz33mz_zip_writer_init_from_reader_v2EPNS_14mz_zip_archiveEPKcj.exit: ; preds = %2, %9, %_ZN12duckdb_minizL16mz_zip_set_errorEPNS_14mz_zip_archiveENS_12mz_zip_errorE.exit53.i, %_ZN12duckdb_minizL16mz_zip_set_errorEPNS_14mz_zip_archiveENS_12mz_zip_errorE.exit51.i, %_ZN12duckdb_minizL16mz_zip_set_errorEPNS_14mz_zip_archiveENS_12mz_zip_errorE.exit49.i, %_ZN12duckdb_minizL16mz_zip_set_errorEPNS_14mz_zip_archiveENS_12mz_zip_errorE.exit47.i, %_ZN12duckdb_minizL16mz_zip_set_errorEPNS_14mz_zip_archiveENS_12mz_zip_errorE.exit45.i, %_ZN12duckdb_minizL16mz_zip_set_errorEPNS_14mz_zip_archiveENS_12mz_zip_errorE.exit.i, %46
  %.0.i = phi i32 [ 0, %_ZN12duckdb_minizL16mz_zip_set_errorEPNS_14mz_zip_archiveENS_12mz_zip_errorE.exit53.i ], [ 0, %_ZN12duckdb_minizL16mz_zip_set_errorEPNS_14mz_zip_archiveENS_12mz_zip_errorE.exit47.i ], [ 0, %_ZN12duckdb_minizL16mz_zip_set_errorEPNS_14mz_zip_archiveENS_12mz_zip_errorE.exit45.i ], [ 1, %46 ], [ 0, %_ZN12duckdb_minizL16mz_zip_set_errorEPNS_14mz_zip_archiveENS_12mz_zip_errorE.exit.i ], [ 0, %_ZN12duckdb_minizL16mz_zip_set_errorEPNS_14mz_zip_archiveENS_12mz_zip_errorE.exit51.i ], [ 0, %_ZN12duckdb_minizL16mz_zip_set_errorEPNS_14mz_zip_archiveENS_12mz_zip_errorE.exit49.i ], [ 0, %2 ], [ 0, %9 ]
  ret i32 %.0.i
}